target datalayout = "e-m:e-p270:32:32-p271:32:32-p272:64:64-i64:64-i128:128-f80:128-n8:16:32:64-S128"
target triple = "x86_64-pc-linux-gnu"

%struct.shm_mq = type { i8, ptr, ptr, %struct.pg_atomic_uint64, %struct.pg_atomic_uint64, i64, i8, i8, [0 x i8] }
%struct.pg_atomic_uint64 = type { i64 }
%struct.shm_mq_handle = type { ptr, ptr, ptr, ptr, i64, i64, i64, i64, i64, i8, i8, ptr }

@.str = private unnamed_addr constant [9 x i8] c"shm_mq.c\00", align 1
@__func__.shm_mq_get_receiver = private unnamed_addr constant [20 x i8] c"shm_mq_get_receiver\00", align 1
@MyProc = external global ptr, align 8

; Function Attrs: inlinehint nounwind uwtable
define internal i32 @tas(ptr noundef %0) #2 {
  %2 = alloca ptr, align 8
  %3 = alloca i8, align 1
  store ptr %0, ptr %2, align 8
  call void @llvm.lifetime.start.p0(i64 1, ptr %3) #8
  store i8 1, ptr %3, align 1
  %4 = load i8, ptr %3, align 1
  %5 = load ptr, ptr %2, align 8
  %6 = call i8 asm sideeffect "\09lock\09\09\09\0A\09xchgb\09$0,$1\09\0A", "=q,=*m,0,*m,~{memory},~{cc},~{dirflag},~{fpsr},~{flags}"(ptr elementtype(i8) %5, i8 %4, ptr elementtype(i8) %5) #8, !srcloc !6
  store i8 %6, ptr %3, align 1
  %7 = load i8, ptr %3, align 1
  %8 = zext i8 %7 to i32
  call void @llvm.lifetime.end.p0(i64 1, ptr %3) #8
  ret i32 %8
}

; Function Attrs: nounwind uwtable
define dso_local ptr @shm_mq_get_receiver(ptr noundef %0) #0 {
  %2 = alloca ptr, align 8
  %3 = alloca ptr, align 8
  store ptr %0, ptr %2, align 8
  call void @llvm.lifetime.start.p0(i64 8, ptr %3) #8
  %4 = load ptr, ptr %2, align 8
  %5 = getelementptr inbounds nuw %struct.shm_mq, ptr %4, i32 0, i32 0
  %6 = call i32 @tas(ptr noundef %5)
  %7 = icmp ne i32 %6, 0
  br i1 %7, label %8, label %12

8:                                                ; preds = %1
  %9 = load ptr, ptr %2, align 8
  %10 = getelementptr inbounds nuw %struct.shm_mq, ptr %9, i32 0, i32 0
  %11 = call i32 @s_lock(ptr noundef %10, ptr noundef @.str, i32 noundef 246, ptr noundef @__func__.shm_mq_get_receiver)
  br label %13

12:                                               ; preds = %1
  br label %13

13:                                               ; preds = %12, %8
  %14 = load ptr, ptr %2, align 8
  %15 = getelementptr inbounds nuw %struct.shm_mq, ptr %14, i32 0, i32 1
  %16 = load ptr, ptr %15, align 8
  store ptr %16, ptr %3, align 8
  br label %17

17:                                               ; preds = %13
  call void asm sideeffect "", "~{memory},~{dirflag},~{fpsr},~{flags}"() #8, !srcloc !8
  %18 = load ptr, ptr %2, align 8
  %19 = getelementptr inbounds nuw %struct.shm_mq, ptr %18, i32 0, i32 0
  store i8 0, ptr %19, align 8
  br label %20

20:                                               ; preds = %17
  br label %21

21:                                               ; preds = %20
  %22 = load ptr, ptr %3, align 8
  call void @llvm.lifetime.end.p0(i64 8, ptr %3) #8
  ret ptr %22
}

; Function Attrs: nounwind uwtable
define dso_local i32 @shm_mq_wait_for_attach(ptr noundef %0) #0 {
  %2 = alloca i32, align 4
  %3 = alloca ptr, align 8
  %4 = alloca ptr, align 8
  %5 = alloca ptr, align 8
  %6 = alloca i32, align 4
  store ptr %0, ptr %3, align 8
  call void @llvm.lifetime.start.p0(i64 8, ptr %4) #8
  %7 = load ptr, ptr %3, align 8
  %8 = getelementptr inbounds nuw %struct.shm_mq_handle, ptr %7, i32 0, i32 0
  %9 = load ptr, ptr %8, align 8
  store ptr %9, ptr %4, align 8
  call void @llvm.lifetime.start.p0(i64 8, ptr %5) #8
  %10 = load ptr, ptr %4, align 8
  %11 = call ptr @shm_mq_get_receiver(ptr noundef %10)
  %12 = load ptr, ptr @MyProc, align 8
  %13 = icmp eq ptr %11, %12
  br i1 %13, label %14, label %17

14:                                               ; preds = %1
  %15 = load ptr, ptr %4, align 8
  %16 = getelementptr inbounds nuw %struct.shm_mq, ptr %15, i32 0, i32 2
  store ptr %16, ptr %5, align 8
  br label %20

17:                                               ; preds = %1
  %18 = load ptr, ptr %4, align 8
  %19 = getelementptr inbounds nuw %struct.shm_mq, ptr %18, i32 0, i32 1
  store ptr %19, ptr %5, align 8
  br label %20

20:                                               ; preds = %17, %14
  %21 = load ptr, ptr %4, align 8
  %22 = load ptr, ptr %5, align 8
  %23 = load ptr, ptr %3, align 8
  %24 = getelementptr inbounds nuw %struct.shm_mq_handle, ptr %23, i32 0, i32 2
  %25 = load ptr, ptr %24, align 8
  %26 = call zeroext i1 @shm_mq_wait_internal(ptr noundef %21, ptr noundef %22, ptr noundef %25)
  br i1 %26, label %27, label %28

27:                                               ; preds = %20
  store i32 0, ptr %2, align 4
  store i32 1, ptr %6, align 4
  br label %29

28:                                               ; preds = %20
  store i32 2, ptr %2, align 4
  store i32 1, ptr %6, align 4
  br label %29

29:                                               ; preds = %28, %27
  call void @llvm.lifetime.end.p0(i64 8, ptr %5) #8
  call void @llvm.lifetime.end.p0(i64 8, ptr %4) #8
  %30 = load i32, ptr %2, align 4
  ret i32 %30
}