; Function Attrs: nounwind uwtable
define dso_local range(i32 0, 3) i32 @shm_mq_wait_for_attach(ptr noundef readonly captures(none) %0) local_unnamed_addr #0 {
  %2 = load ptr, ptr %0, align 8
  %3 = tail call i8 asm sideeffect "\09lock\09\09\09\0A\09xchgb\09$0,$1\09\0A", "=q,=*m,0,*m,~{memory},~{cc},~{dirflag},~{fpsr},~{flags}"(ptr elementtype(i8) %2, i8 1, ptr elementtype(i8) %2) #11, !srcloc !5
  %.not.i = icmp eq i8 %3, 0
  br i1 %.not.i, label %shm_mq_get_receiver.exit, label %4

4:                                                ; preds = %1
  %5 = tail call i32 @s_lock(ptr noundef %2, ptr noundef nonnull @.str, i32 noundef 246, ptr noundef nonnull @__func__.shm_mq_get_receiver) #11
  br label %shm_mq_get_receiver.exit

shm_mq_get_receiver.exit:                         ; preds = %1, %4
  %6 = getelementptr inbounds nuw i8, ptr %2, i64 8
  %7 = load ptr, ptr %6, align 8
  tail call void asm sideeffect "", "~{memory},~{dirflag},~{fpsr},~{flags}"() #11, !srcloc !8
  store i8 0, ptr %2, align 8
  %8 = load ptr, ptr @MyProc, align 8
  %9 = icmp eq ptr %7, %8
  %10 = getelementptr inbounds nuw i8, ptr %2, i64 16
  %.0 = select i1 %9, ptr %10, ptr %6
  %11 = getelementptr inbounds nuw i8, ptr %0, i64 16
  %12 = load ptr, ptr %11, align 8
  %13 = tail call fastcc zeroext i1 @shm_mq_wait_internal(ptr noundef nonnull %2, ptr noundef nonnull %.0, ptr noundef %12)
  %.07 = select i1 %13, i32 0, i32 2
  ret i32 %.07
}